

HI-TECH Software Macro Assembler (PIC18) V9.65 build 7190 
                                                       Sun Aug 31 21:51:28 2014


     1                           
     2                           	; HI-TECH C PRO for the PIC18 MCU Family V9.65
     3                           	; Copyright (C) 1984-2010 HI-TECH Software
     4                           
     5                           	; Auto-generated runtime startup code for final
                                  link stage.
     6                           
     7                           	;
     8                           	; Compiler options:
     9                           	;
    10                           	; -ousb io board.cof -musb io board.map --summa
                                 ry=default \
    11                           	; --output=default main.p1 usb_device.p1 usb_fu
                                 nction_hid.p1 \
    12                           	; usbcallback.p1 usb_descriptors.p1 --chip=18F4
                                 550 -P --runtime=default \
    13                           	; --opt=default -D__DEBUG=1 -g --asmlist \
    14                           	; --errformat=Error   [%n] %f; %l.%c %s --msgfo
                                 rmat=Advisory[%n] %s \
    15                           	; --warnformat=Warning [%n] %f; %l.%c %s
    16                           	;
    17                           
    18                           
    19                           	GLOBAL	_main,start,_exit
    20                           	FNROOT	_main
    21                           
    22  000000                     	pic18cxx	equ	1
    23                           
    24                           	psect	config,class=CONFIG,delta=1
    25                           	psect	idloc,class=IDLOC,delta=1
    26                           	psect	eeprom_data,class=EEDATA,delta=1
    27                           	psect	const,class=CODE,delta=1,reloc=2
    28                           	psect	smallconst,class=SMALLCONST,delta=1,reloc
                                 =2
    29                           	psect	mediumconst,class=MEDIUMCONST,delta=1,rel
                                 oc=2
    30                           	psect	rbss,class=COMRAM,space=1
    31                           	psect	bss,class=RAM,space=1
    32                           	psect	rdata,class=COMRAM,space=1
    33                           	psect	irdata,class=CODE,space=0,reloc=2
    34                           	psect	bss,class=RAM,space=1
    35                           	psect	data,class=RAM,space=1
    36                           	psect	idata,class=CODE,space=0,reloc=2
    37                           	psect	nvram,class=NVRAM,space=1
    38                           	psect	nvrram,class=COMRAM,space=1
    39                           	psect	nvbit,class=COMRAM,bit,space=1
    40                           	psect	temp,ovrld,class=COMRAM,space=1
    41                           	psect	struct,ovrld,class=COMRAM,space=1
    42                           	psect	rbit,class=COMRAM,bit,space=1
    43                           	psect	bigbss,class=BIGRAM,space=1
    44                           	psect	bigdata,class=BIGRAM,space=1
    45                           	psect	ibigdata,class=CODE,space=0,reloc=2
    46                           	psect	farbss,class=FARRAM,space=0,reloc=2,delta
                                 =1
    47                           	psect	fardata,class=FARRAM,space=0,reloc=2,delt
                                 a=1
    48                           	psect	ifardata,class=CODE,space=0,reloc=2,delta
                                 =1
    49                           
    50                           	psect	reset_vec,class=CODE,delta=1,reloc=2
    51                           	psect	powerup,class=CODE,delta=1,reloc=2
    52                           	psect	intcode,class=CODE,delta=1,reloc=2
    53                           	psect	intcodelo,class=CODE,delta=1,reloc=2
    54                           	psect	intret,class=CODE,delta=1,reloc=2
    55                           	psect	intentry,class=CODE,delta=1,reloc=2
    56                           
    57                           	psect	intsave_regs,class=BIGRAM,space=1
    58                           	psect	init,class=CODE,delta=1,reloc=2
    59                           	psect	text,class=CODE,delta=1,reloc=2
    60                           GLOBAL	intlevel0,intlevel1,intlevel2
    61  001FF4                     intlevel0:
    62  001FF4                     intlevel1:
    63  001FF4                     intlevel2:
    64                           GLOBAL	intlevel3
    65  001FF4                     intlevel3:
    66                           	psect	end_init,class=CODE,delta=1,reloc=2
    67                           	psect	clrtext,class=CODE,delta=1,reloc=2
    68                           
    69                           
    70                           ; User config settings for word 1
    71                           ;
    72                           	psect config
    73  300000                     	org 0
    74  300000  3EE4               	dw 0x3EE4
    75                           
    76                           ; User config settings for word 2
    77                           ;
    78                           	psect config
    79  300002                     	org 2
    80  300002  FEFF               	dw 0xFEFF
    81                           
    82                           ; User config settings for word 3
    83                           ;
    84                           	psect config
    85  300004                     	org 4
    86  300004  F1FF               	dw 0xF1FF
    87                           
    88                           ; User config settings for word 4
    89                           ;
    90                           	psect config
    91  300006                     	org 6
    92  300006  FF9B               	dw 0xFF9B
    93                           
    94                           ; User config settings for word 5
    95                           ;
    96                           	psect config
    97  300008                     	org 8
    98  300008  FFFF               	dw 0xFFFF
    99                           
   100                           ; User config settings for word 6
   101                           ;
   102                           	psect config
   103  30000A                     	org 10
   104  30000A  FFFF               	dw 0xFFFF
   105                           
   106                           ; User config settings for word 7
   107                           ;
   108                           	psect config
   109  30000C                     	org 12
   110  30000C  FFFF               	dw 0xFFFF
   111                           	psect	rparam,class=COMRAM,space=1
   112                           	psect	param0,class=BANK0,space=1
   113                           	psect	param1,class=BANK1,space=1
   114                           	psect	param2,class=BANK2,space=1
   115                           	psect	param3,class=BANK3,space=1
   116  000000                     wreg	EQU	0FE8h
   117  000000                     fsr0l	EQU	0FE9h
   118  000000                     fsr0h	EQU	0FEAh
   119  000000                     fsr1l	EQU	0FE1h
   120  000000                     fsr1h	EQU	0FE2h
   121  000000                     fsr2l	EQU	0FD9h
   122  000000                     fsr2h	EQU	0FDAh
   123  000000                     postinc0	EQU	0FEEh
   124  000000                     postdec0	EQU	0FEDh
   125  000000                     postinc1	EQU	0FE6h
   126  000000                     postdec1	EQU	0FE5h
   127  000000                     postinc2	EQU	0FDEh
   128  000000                     postdec2	EQU	0FDDh
   129  000000                     tblptrl	EQU	0FF6h
   130  000000                     tblptrh	EQU	0FF7h
   131  000000                     tblptru	EQU	0FF8h
   132  000000                     tablat		EQU	0FF5h
   133                           
   134                           	GLOBAL __accesstop
   135  000000                     __accesstop EQU 96
   136                           	PSECT	ramtop,class=RAM
   137                           	GLOBAL	__S1			; top of RAM usage
   138                           	GLOBAL	__ramtop
   139                           	GLOBAL	__LRAM,__HRAM
   140  000400                     __ramtop:
   141                           
   142                           	PSECT	reset_vec
   143  000000                     reset_pos:
   144                           
   145                           	PSECT	init
   146  000000                     start:
   147  000000                     _exit:
   148                           ; fardata psect  - 0 bytes to load
   149                           
   150                           ; farbss psect  - 0 bytes to clear
   151                           
   152                           ; bigdata psect - 0 bytes to load
   153                           
   154                           ; data0 psect - 1 bytes to load
   155                           GLOBAL	__Ldata0,__Lidata
   156  000000  EE00  F034         	lfsr	0,__Ldata0
   157                           	; load TBLPTR registers with __Lidata
   158  000004  0EC4               	movlw	low (__Lidata)
   159  000006  6EF6               	movwf	tblptrl
   160  000008  0E04               	movlw	high(__Lidata)
   161  00000A  6EF7               	movwf	tblptrh
   162  00000C  0009               	tblrd	*+
   163  00000E  CFF5 FFEE          	movff	tablat,postinc0
   164                           
   165  000012  EE00 F000          	lfsr	0,0
   166  000016  EE10 F034          	lfsr	1,52
   167  00001A  EC31  F000         	call	clear_ram
   168  00001E  EE04 F000          	lfsr	0,1024
   169  000022  EE11 F008          	lfsr	1,264
   170  000026  EC31  F000         	call	clear_ram
   171  00002A  EE05 F020          	lfsr	0,1312
   172  00002E  EE10 F008          	lfsr	1,8
   173  000032  EC31  F000         	call	clear_ram
   174  000036  EE05 F030          	lfsr	0,1328
   175  00003A  EE10 F003          	lfsr	1,3
   176  00003E  EC31  F000         	call	clear_ram
   177  000042  EE05 F070          	lfsr	0,1392
   178  000046  EE10 F003          	lfsr	1,3
   179  00004A  EC31  F000         	call	clear_ram
   180  00004E  EE0F F070          	lfsr	0,3952
   181  000052  EE10 F00F          	lfsr	1,15
   182  000056  EC31  F000         	call	clear_ram
   183                           	PSECT	end_init
   184                           	GLOBAL	__Lmediumconst
   185  00005A  0E00               	movlw	low highword(__Lmediumconst)
   186  00005C  6EF8               	movwf	tblptru
   187  00005E  EFE8  F00F         	goto	_main		;go do the main stuff
   188                           ; Clear these memory locations
   189  000062                     clear_ram:
   190  000062  6AEE               	clrf	postinc0	;clear, increment FSR0
   191  000064  50E5               	movf	postdec1,w	;decrement loop variable
   192  000066  50E1               	movf	fsr1l,w
   193  000068  E1FC               	bnz	clear_ram
   194  00006A  50E2               	movf	fsr1h,w
   195  00006C  E1FA               	bnz	clear_ram
   196  00006E  0012               	return
   197                           ; Copy the ROM data image to destination in RAM
   198  000070                     copy_data:
   199  000070  0009               	tblrd	*+
   200  000072  CFF5 FFEE          	movff	tablat,postinc0
   201  000076  50E5               	movf	postdec1,w	;decrement loop variable
   202  000078  50E1               	movf	fsr1l,w
   203  00007A  E1FA               	bnz	copy_data
   204  00007C  50E2               	movf	fsr1h,w
   205  00007E  E1F8               	bnz	copy_data
   206  000080  0012               	return


HI-TECH Software PICC-18 Macro Assembler V9.65 build 7190 
Symbol Table                                           Sun Aug 31 21:51:28 2014

          __S1 0300           _main 1FD0           _exit 0000  
         fsr1h 000FE2           fsr1l 000FE1           start 0000  
        __HRAM 0000          __LRAM 0001          tablat 000FF5  
       tblptrh 000FF7         tblptrl 000FF6         tblptru 000FF8  
   __accesstop 000060        __Ldata0 0034        __Lidata 04C4  
      __ramtop 0400  __Lmediumconst 04C4        postdec1 000FE5  
      postinc0 000FEE       clear_ram 0062       copy_data 0070  
     intlevel0 1FF4       intlevel1 1FF4       intlevel2 1FF4  
     intlevel3 1FF4       reset_pos 0000  
